; Function Attrs: mustprogress nofree norecurse nosync nounwind memory(read, argmem: readwrite, inaccessiblemem: none) uwtable
define noundef nonnull align 8 dereferenceable(80) ptr @_ZN32pxrInternal_v0_24__pxrReserved__22HdDataSourceLocatorSet20IntersectionIteratorppEv(ptr noundef nonnull returned align 8 dereferenceable(80) %0) local_unnamed_addr #10 align 2 personality ptr @__gxx_personality_v0 {
  store i8 0, ptr %0, align 8
  %2 = getelementptr inbounds nuw i8, ptr %0, i64 8
  %3 = load ptr, ptr %2, align 8
  %4 = getelementptr inbounds i8, ptr %3, i64 56
  store ptr %4, ptr %2, align 8
  %5 = getelementptr inbounds nuw i8, ptr %0, i64 16
  %6 = load ptr, ptr %5, align 8
  %.not = icmp eq ptr %4, %6
  br i1 %.not, label %_ZNK32pxrInternal_v0_24__pxrReserved__19HdDataSourceLocator9HasPrefixERKS0_.exit.thread, label %7

7:                                                ; preds = %1
  %8 = getelementptr inbounds nuw i8, ptr %0, i64 24
  %9 = getelementptr inbounds i8, ptr %0, i64 72
  %10 = load i32, ptr %9, align 8
  %11 = icmp eq i32 %10, 0
  br i1 %11, label %_ZNK32pxrInternal_v0_24__pxrReserved__19HdDataSourceLocator9HasPrefixERKS0_.exit.thread, label %12

12:                                               ; preds = %7
  %13 = zext i32 %10 to i64
  %14 = getelementptr inbounds i8, ptr %3, i64 104
  %15 = load i32, ptr %14, align 8
  %16 = icmp ugt i32 %10, %15
  br i1 %16, label %_ZNK32pxrInternal_v0_24__pxrReserved__19HdDataSourceLocator9HasPrefixERKS0_.exit, label %.preheader.i

.preheader.i:                                     ; preds = %12
  %17 = getelementptr inbounds i8, ptr %3, i64 108
  %18 = load i32, ptr %17, align 4
  %19 = icmp ult i32 %18, 7
  %20 = load ptr, ptr %4, align 8
  %spec.select.i.i.i.i = select i1 %19, ptr %4, ptr %20
  %21 = getelementptr inbounds i8, ptr %0, i64 76
  %22 = load i32, ptr %21, align 4
  %23 = icmp ult i32 %22, 7
  %24 = load ptr, ptr %8, align 8
  %spec.select.i.i.i11.i = select i1 %23, ptr %8, ptr %24
  br label %27

25:                                               ; preds = %27
  %26 = add nuw nsw i64 %.01012.i, 1
  %exitcond.not.i = icmp eq i64 %26, %13
  br i1 %exitcond.not.i, label %_ZNK32pxrInternal_v0_24__pxrReserved__19HdDataSourceLocator9HasPrefixERKS0_.exit.thread, label %27, !llvm.loop !12

27:                                               ; preds = %25, %.preheader.i
  %.01012.i = phi i64 [ 0, %.preheader.i ], [ %26, %25 ]
  %28 = getelementptr inbounds %"class.pxrInternal_v0_24__pxrReserved__::TfToken", ptr %spec.select.i.i.i.i, i64 %.01012.i
  %29 = getelementptr inbounds %"class.pxrInternal_v0_24__pxrReserved__::TfToken", ptr %spec.select.i.i.i11.i, i64 %.01012.i
  %30 = load ptr, ptr %28, align 8
  %31 = ptrtoint ptr %30 to i64
  %32 = and i64 %31, -8
  %33 = inttoptr i64 %32 to ptr
  %34 = load ptr, ptr %29, align 8
  %35 = ptrtoint ptr %34 to i64
  %36 = and i64 %35, -8
  %37 = inttoptr i64 %36 to ptr
  %.not.i = icmp eq ptr %33, %37
  br i1 %.not.i, label %25, label %_ZNK32pxrInternal_v0_24__pxrReserved__19HdDataSourceLocator9HasPrefixERKS0_.exit

_ZNK32pxrInternal_v0_24__pxrReserved__19HdDataSourceLocator9HasPrefixERKS0_.exit: ; preds = %27, %12
  store ptr %6, ptr %2, align 8
  br label %_ZNK32pxrInternal_v0_24__pxrReserved__19HdDataSourceLocator9HasPrefixERKS0_.exit.thread

_ZNK32pxrInternal_v0_24__pxrReserved__19HdDataSourceLocator9HasPrefixERKS0_.exit.thread: ; preds = %25, %7, %_ZNK32pxrInternal_v0_24__pxrReserved__19HdDataSourceLocator9HasPrefixERKS0_.exit, %1
  ret ptr %0
}